target datalayout = "e-m:e-p270:32:32-p271:32:32-p272:64:64-i64:64-i128:128-f80:128-n8:16:32:64-S128"
target triple = "x86_64-pc-linux-gnu"

%"struct.std::array.22" = type { [4 x %"struct.std::array.23"] }
%"struct.std::array.23" = type { [2 x %"struct.std::array.24"] }
%"struct.std::array.24" = type { [4 x i32] }
%"class.std::shared_ptr" = type { %"class.std::__shared_ptr" }
%"class.std::__shared_ptr" = type { ptr, %"class.std::__shared_count" }
%"class.std::__shared_count" = type { ptr }
%"class.open_spiel::twenty_forty_eight::TwentyFortyEightState" = type { %"class.open_spiel::State.base", ptr, i32, %"class.std::vector.9", i8, i32, i32, i32 }
%"class.open_spiel::State.base" = type <{ ptr, %"class.std::shared_ptr", i32, i32, %"class.std::vector", i32 }>
%"class.std::vector" = type { %"struct.std::_Vector_base" }
%"struct.std::_Vector_base" = type { %"struct.std::_Vector_base<open_spiel::State::PlayerAction, std::allocator<open_spiel::State::PlayerAction>>::_Vector_impl" }
%"struct.std::_Vector_base<open_spiel::State::PlayerAction, std::allocator<open_spiel::State::PlayerAction>>::_Vector_impl" = type { %"struct.std::_Vector_base<open_spiel::State::PlayerAction, std::allocator<open_spiel::State::PlayerAction>>::_Vector_impl_data" }
%"struct.std::_Vector_base<open_spiel::State::PlayerAction, std::allocator<open_spiel::State::PlayerAction>>::_Vector_impl_data" = type { ptr, ptr, ptr }
%"class.std::vector.9" = type { %"struct.std::_Vector_base.10" }
%"struct.std::_Vector_base.10" = type { %"struct.std::_Vector_base<open_spiel::twenty_forty_eight::Tile, std::allocator<open_spiel::twenty_forty_eight::Tile>>::_Vector_impl" }
%"struct.std::_Vector_base<open_spiel::twenty_forty_eight::Tile, std::allocator<open_spiel::twenty_forty_eight::Tile>>::_Vector_impl" = type { %"struct.std::_Vector_base<open_spiel::twenty_forty_eight::Tile, std::allocator<open_spiel::twenty_forty_eight::Tile>>::_Vector_impl_data" }
%"struct.std::_Vector_base<open_spiel::twenty_forty_eight::Tile, std::allocator<open_spiel::twenty_forty_eight::Tile>>::_Vector_impl_data" = type { ptr, ptr, ptr }
%"struct.open_spiel::twenty_forty_eight::Tile" = type <{ i32, i8, [3 x i8] }>
%"struct.std::array.20" = type { [2 x %"struct.open_spiel::twenty_forty_eight::Coordinate"] }
%"struct.open_spiel::twenty_forty_eight::Coordinate" = type { i32, i32 }

; Function Attrs: mustprogress nounwind uwtable
define linkonce_odr noundef ptr @_ZNSt14__array_traitsIiLm4EE6_S_ptrERA4_Ki(ptr noundef nonnull align 4 dereferenceable(16) %0) #5 comdat align 2 {
  %2 = alloca ptr, align 8
  store ptr %0, ptr %2, align 8
  %3 = load ptr, ptr %2, align 8
  %4 = getelementptr inbounds [4 x i32], ptr %3, i64 0, i64 0
  ret ptr %4
}

; Function Attrs: mustprogress nounwind uwtable
define linkonce_odr noundef nonnull align 4 dereferenceable(5) ptr @_ZNKSt6vectorIN10open_spiel18twenty_forty_eight4TileESaIS2_EEixEm(ptr noundef nonnull align 8 dereferenceable(24) %0, i64 noundef %1) #5 comdat align 2 {
  %3 = alloca ptr, align 8
  %4 = alloca i64, align 8
  store ptr %0, ptr %3, align 8
  store i64 %1, ptr %4, align 8
  %5 = load ptr, ptr %3, align 8
  %6 = getelementptr inbounds nuw %"struct.std::_Vector_base.10", ptr %5, i32 0, i32 0
  %7 = getelementptr inbounds nuw %"struct.std::_Vector_base<open_spiel::twenty_forty_eight::Tile, std::allocator<open_spiel::twenty_forty_eight::Tile>>::_Vector_impl_data", ptr %6, i32 0, i32 0
  %8 = load ptr, ptr %7, align 8
  %9 = load i64, ptr %4, align 8
  %10 = getelementptr inbounds %"struct.open_spiel::twenty_forty_eight::Tile", ptr %8, i64 %9
  ret ptr %10
}

; Function Attrs: mustprogress nounwind uwtable
define linkonce_odr noundef nonnull align 4 dereferenceable(8) ptr @_ZNSt14__array_traitsIN10open_spiel18twenty_forty_eight10CoordinateELm2EE6_S_refERA2_KS2_m(ptr noundef nonnull align 4 dereferenceable(16) %0, i64 noundef %1) #5 comdat align 2 {
  %3 = alloca ptr, align 8
  %4 = alloca i64, align 8
  store ptr %0, ptr %3, align 8
  store i64 %1, ptr %4, align 8
  %5 = load ptr, ptr %3, align 8
  %6 = load i64, ptr %4, align 8
  %7 = getelementptr inbounds [2 x %"struct.open_spiel::twenty_forty_eight::Coordinate"], ptr %5, i64 0, i64 %6
  ret ptr %7
}

; Function Attrs: mustprogress nounwind uwtable
define linkonce_odr i64 @_ZNK10open_spiel18twenty_forty_eight21TwentyFortyEightState7BoardAtEii(ptr noundef nonnull align 8 dereferenceable(120) %0, i32 noundef %1, i32 noundef %2) #5 comdat align 2 {
  %4 = alloca %"struct.open_spiel::twenty_forty_eight::Tile", align 4
  %5 = alloca ptr, align 8
  %6 = alloca i32, align 4
  %7 = alloca i32, align 4
  store ptr %0, ptr %5, align 8
  store i32 %1, ptr %6, align 4
  store i32 %2, ptr %7, align 4
  %8 = load ptr, ptr %5, align 8
  %9 = getelementptr inbounds nuw %"class.open_spiel::twenty_forty_eight::TwentyFortyEightState", ptr %8, i32 0, i32 3
  %10 = load i32, ptr %6, align 4
  %11 = mul nsw i32 %10, 4
  %12 = load i32, ptr %7, align 4
  %13 = add nsw i32 %11, %12
  %14 = sext i32 %13 to i64
  %15 = call noundef nonnull align 4 dereferenceable(5) ptr @_ZNKSt6vectorIN10open_spiel18twenty_forty_eight4TileESaIS2_EEixEm(ptr noundef nonnull align 8 dereferenceable(24) %9, i64 noundef %14) #3
  call void @llvm.memcpy.p0.p0.i64(ptr align 4 %4, ptr align 4 %15, i64 8, i1 false)
  %16 = load i64, ptr %4, align 4
  ret i64 %16
}

; Function Attrs: mustprogress nounwind uwtable
define internal noundef zeroext i1 @_ZN10open_spiel18twenty_forty_eight12_GLOBAL__N_18InBoundsEii(i32 noundef %0, i32 noundef %1) #5 {
  %3 = alloca i32, align 4
  %4 = alloca i32, align 4
  store i32 %0, ptr %3, align 4
  store i32 %1, ptr %4, align 4
  %5 = load i32, ptr %3, align 4
  %6 = icmp sge i32 %5, 0
  br i1 %6, label %7, label %16

7:                                                ; preds = %2
  %8 = load i32, ptr %3, align 4
  %9 = icmp slt i32 %8, 4
  br i1 %9, label %10, label %16

10:                                               ; preds = %7
  %11 = load i32, ptr %4, align 4
  %12 = icmp sge i32 %11, 0
  br i1 %12, label %13, label %16

13:                                               ; preds = %10
  %14 = load i32, ptr %4, align 4
  %15 = icmp slt i32 %14, 4
  br label %16

16:                                               ; preds = %13, %10, %7, %2
  %17 = phi i1 [ false, %10 ], [ false, %7 ], [ false, %2 ], [ %15, %13 ]
  ret i1 %17
}

; Function Attrs: mustprogress nounwind uwtable
define linkonce_odr noundef ptr @_ZNKSt5arrayIiLm4EE4dataEv(ptr noundef nonnull align 4 dereferenceable(16) %0) #5 comdat align 2 {
  %2 = alloca ptr, align 8
  store ptr %0, ptr %2, align 8
  %3 = load ptr, ptr %2, align 8
  %4 = getelementptr inbounds nuw %"struct.std::array.24", ptr %3, i32 0, i32 0
  %5 = call noundef ptr @_ZNSt14__array_traitsIiLm4EE6_S_ptrERA4_Ki(ptr noundef nonnull align 4 dereferenceable(16) %4) #3
  ret ptr %5
}

; Function Attrs: mustprogress nounwind uwtable
define linkonce_odr noundef nonnull align 4 dereferenceable(16) ptr @_ZNSt14__array_traitsISt5arrayIiLm4EELm2EE6_S_refERA2_KS1_m(ptr noundef nonnull align 4 dereferenceable(32) %0, i64 noundef %1) #5 comdat align 2 {
  %3 = alloca ptr, align 8
  %4 = alloca i64, align 8
  store ptr %0, ptr %3, align 8
  store i64 %1, ptr %4, align 8
  %5 = load ptr, ptr %3, align 8
  %6 = load i64, ptr %4, align 8
  %7 = getelementptr inbounds [2 x %"struct.std::array.24"], ptr %5, i64 0, i64 %6
  ret ptr %7
}

; Function Attrs: mustprogress nounwind uwtable
define linkonce_odr noundef nonnull align 4 dereferenceable(32) ptr @_ZNSt14__array_traitsISt5arrayIS0_IiLm4EELm2EELm4EE6_S_refERA4_KS2_m(ptr noundef nonnull align 4 dereferenceable(128) %0, i64 noundef %1) #5 comdat align 2 {
  %3 = alloca ptr, align 8
  %4 = alloca i64, align 8
  store ptr %0, ptr %3, align 8
  store i64 %1, ptr %4, align 8
  %5 = load ptr, ptr %3, align 8
  %6 = load i64, ptr %4, align 8
  %7 = getelementptr inbounds [4 x %"struct.std::array.23"], ptr %5, i64 0, i64 %6
  ret ptr %7
}

; Function Attrs: mustprogress nounwind uwtable
define linkonce_odr i64 @_ZNK10open_spiel18twenty_forty_eight21TwentyFortyEightState7BoardAtENS0_10CoordinateE(ptr noundef nonnull align 8 dereferenceable(120) %0, i64 %1) #5 comdat align 2 {
  %3 = alloca %"struct.open_spiel::twenty_forty_eight::Tile", align 4
  %4 = alloca %"struct.open_spiel::twenty_forty_eight::Coordinate", align 4
  %5 = alloca ptr, align 8
  store i64 %1, ptr %4, align 4
  store ptr %0, ptr %5, align 8
  %6 = load ptr, ptr %5, align 8
  %7 = getelementptr inbounds nuw %"class.open_spiel::twenty_forty_eight::TwentyFortyEightState", ptr %6, i32 0, i32 3
  %8 = getelementptr inbounds nuw %"struct.open_spiel::twenty_forty_eight::Coordinate", ptr %4, i32 0, i32 0
  %9 = load i32, ptr %8, align 4
  %10 = mul nsw i32 %9, 4
  %11 = getelementptr inbounds nuw %"struct.open_spiel::twenty_forty_eight::Coordinate", ptr %4, i32 0, i32 1
  %12 = load i32, ptr %11, align 4
  %13 = add nsw i32 %10, %12
  %14 = sext i32 %13 to i64
  %15 = call noundef nonnull align 4 dereferenceable(5) ptr @_ZNKSt6vectorIN10open_spiel18twenty_forty_eight4TileESaIS2_EEixEm(ptr noundef nonnull align 8 dereferenceable(24) %7, i64 noundef %14) #3
  call void @llvm.memcpy.p0.p0.i64(ptr align 4 %3, ptr align 4 %15, i64 8, i1 false)
  %16 = load i64, ptr %3, align 4
  ret i64 %16
}

; Function Attrs: mustprogress nounwind uwtable
define linkonce_odr noundef nonnull align 4 dereferenceable(8) ptr @_ZNSt5arrayIN10open_spiel18twenty_forty_eight10CoordinateELm2EEixEm(ptr noundef nonnull align 4 dereferenceable(16) %0, i64 noundef %1) #5 comdat align 2 {
  %3 = alloca ptr, align 8
  %4 = alloca i64, align 8
  store ptr %0, ptr %3, align 8
  store i64 %1, ptr %4, align 8
  %5 = load ptr, ptr %3, align 8
  %6 = getelementptr inbounds nuw %"struct.std::array.20", ptr %5, i32 0, i32 0
  %7 = load i64, ptr %4, align 8
  %8 = call noundef nonnull align 4 dereferenceable(8) ptr @_ZNSt14__array_traitsIN10open_spiel18twenty_forty_eight10CoordinateELm2EE6_S_refERA2_KS2_m(ptr noundef nonnull align 4 dereferenceable(16) %6, i64 noundef %7) #3
  ret ptr %8
}

; Function Attrs: mustprogress uwtable
define noundef i32 @_ZNK10open_spiel18twenty_forty_eight21TwentyFortyEightState14GetCellContentEii(ptr noundef nonnull align 8 dereferenceable(120) %0, i32 noundef %1, i32 noundef %2) #4 align 2 {
  %4 = alloca i32, align 4
  %5 = alloca ptr, align 8
  %6 = alloca i32, align 4
  %7 = alloca i32, align 4
  %8 = alloca %"struct.open_spiel::twenty_forty_eight::Tile", align 4
  store ptr %0, ptr %5, align 8
  store i32 %1, ptr %6, align 4
  store i32 %2, ptr %7, align 4
  %9 = load ptr, ptr %5, align 8
  %10 = load i32, ptr %6, align 4
  %11 = load i32, ptr %7, align 4
  %12 = call noundef zeroext i1 @_ZN10open_spiel18twenty_forty_eight12_GLOBAL__N_18InBoundsEii(i32 noundef %10, i32 noundef %11)
  br i1 %12, label %14, label %13

13:                                               ; preds = %3
  store i32 0, ptr %4, align 4
  br label %21

14:                                               ; preds = %3
  %15 = load i32, ptr %6, align 4
  %16 = load i32, ptr %7, align 4
  %17 = call i64 @_ZNK10open_spiel18twenty_forty_eight21TwentyFortyEightState7BoardAtEii(ptr noundef nonnull align 8 dereferenceable(120) %9, i32 noundef %15, i32 noundef %16)
  %18 = trunc i64 %17 to i40
  store i40 %18, ptr %8, align 4
  %19 = getelementptr inbounds nuw %"struct.open_spiel::twenty_forty_eight::Tile", ptr %8, i32 0, i32 0
  %20 = load i32, ptr %19, align 4
  store i32 %20, ptr %4, align 4
  br label %21

21:                                               ; preds = %14, %13
  %22 = load i32, ptr %4, align 4
  ret i32 %22
}

; Function Attrs: mustprogress nounwind uwtable
define linkonce_odr noundef ptr @_ZNKSt5arrayIiLm4EE3endEv(ptr noundef nonnull align 4 dereferenceable(16) %0) #5 comdat align 2 {
  %2 = alloca ptr, align 8
  store ptr %0, ptr %2, align 8
  %3 = load ptr, ptr %2, align 8
  %4 = call noundef ptr @_ZNKSt5arrayIiLm4EE4dataEv(ptr noundef nonnull align 4 dereferenceable(16) %3) #3
  %5 = getelementptr inbounds i32, ptr %4, i64 4
  ret ptr %5
}

; Function Attrs: mustprogress nounwind uwtable
define linkonce_odr noundef ptr @_ZNKSt5arrayIiLm4EE5beginEv(ptr noundef nonnull align 4 dereferenceable(16) %0) #5 comdat align 2 {
  %2 = alloca ptr, align 8
  store ptr %0, ptr %2, align 8
  %3 = load ptr, ptr %2, align 8
  %4 = call noundef ptr @_ZNKSt5arrayIiLm4EE4dataEv(ptr noundef nonnull align 4 dereferenceable(16) %3) #3
  ret ptr %4
}

; Function Attrs: mustprogress nounwind uwtable
define linkonce_odr noundef nonnull align 4 dereferenceable(16) ptr @_ZNKSt5arrayIS_IiLm4EELm2EEixEm(ptr noundef nonnull align 4 dereferenceable(32) %0, i64 noundef %1) #5 comdat align 2 {
  %3 = alloca ptr, align 8
  %4 = alloca i64, align 8
  store ptr %0, ptr %3, align 8
  store i64 %1, ptr %4, align 8
  %5 = load ptr, ptr %3, align 8
  %6 = getelementptr inbounds nuw %"struct.std::array.23", ptr %5, i32 0, i32 0
  %7 = load i64, ptr %4, align 8
  %8 = call noundef nonnull align 4 dereferenceable(16) ptr @_ZNSt14__array_traitsISt5arrayIiLm4EELm2EE6_S_refERA2_KS1_m(ptr noundef nonnull align 4 dereferenceable(32) %6, i64 noundef %7) #3
  ret ptr %8
}

; Function Attrs: mustprogress nounwind uwtable
define linkonce_odr noundef nonnull align 4 dereferenceable(32) ptr @_ZNKSt5arrayIS_IS_IiLm4EELm2EELm4EEixEm(ptr noundef nonnull align 4 dereferenceable(128) %0, i64 noundef %1) #5 comdat align 2 {
  %3 = alloca ptr, align 8
  %4 = alloca i64, align 8
  store ptr %0, ptr %3, align 8
  store i64 %1, ptr %4, align 8
  %5 = load ptr, ptr %3, align 8
  %6 = getelementptr inbounds nuw %"struct.std::array.22", ptr %5, i32 0, i32 0
  %7 = load i64, ptr %4, align 8
  %8 = call noundef nonnull align 4 dereferenceable(32) ptr @_ZNSt14__array_traitsISt5arrayIS0_IiLm4EELm2EELm4EE6_S_refERA4_KS2_m(ptr noundef nonnull align 4 dereferenceable(128) %6, i64 noundef %7) #3
  ret ptr %8
}

; Function Attrs: mustprogress uwtable
define noundef zeroext i1 @_ZNK10open_spiel18twenty_forty_eight21TwentyFortyEightState21DoesActionChangeBoardEl(ptr noundef nonnull align 8 dereferenceable(120) %0, i64 noundef %1) #4 align 2 {
  %3 = alloca i1, align 1
  %4 = alloca ptr, align 8
  %5 = alloca i64, align 8
  %6 = alloca ptr, align 8
  %7 = alloca ptr, align 8
  %8 = alloca ptr, align 8
  %9 = alloca ptr, align 8
  %10 = alloca i32, align 4
  %11 = alloca ptr, align 8
  %12 = alloca ptr, align 8
  %13 = alloca ptr, align 8
  %14 = alloca i32, align 4
  %15 = alloca i32, align 4
  %16 = alloca %"struct.std::array.20", align 4
  %17 = alloca %"struct.open_spiel::twenty_forty_eight::Coordinate", align 4
  %18 = alloca %"struct.open_spiel::twenty_forty_eight::Coordinate", align 4
  %19 = alloca i32, align 4
  %20 = alloca %"struct.open_spiel::twenty_forty_eight::Tile", align 4
  %21 = alloca %"struct.open_spiel::twenty_forty_eight::Coordinate", align 4
  store ptr %0, ptr %4, align 8
  store i64 %1, ptr %5, align 8
  %22 = load ptr, ptr %4, align 8
  %23 = load i64, ptr %5, align 8
  %24 = call noundef nonnull align 4 dereferenceable(32) ptr @_ZNKSt5arrayIS_IS_IiLm4EELm2EELm4EEixEm(ptr noundef nonnull align 4 dereferenceable(128) @_ZN10open_spiel18twenty_forty_eight12_GLOBAL__N_111kTraversalsE, i64 noundef %23) #3
  store ptr %24, ptr %6, align 8
  %25 = load ptr, ptr %6, align 8
  %26 = call noundef nonnull align 4 dereferenceable(16) ptr @_ZNKSt5arrayIS_IiLm4EELm2EEixEm(ptr noundef nonnull align 4 dereferenceable(32) %25, i64 noundef 0) #3
  store ptr %26, ptr %7, align 8
  %27 = load ptr, ptr %7, align 8
  %28 = call noundef ptr @_ZNKSt5arrayIiLm4EE5beginEv(ptr noundef nonnull align 4 dereferenceable(16) %27) #3
  store ptr %28, ptr %8, align 8
  %29 = load ptr, ptr %7, align 8
  %30 = call noundef ptr @_ZNKSt5arrayIiLm4EE3endEv(ptr noundef nonnull align 4 dereferenceable(16) %29) #3
  store ptr %30, ptr %9, align 8
  br label %31

31:                                               ; preds = %109, %2
  %32 = load ptr, ptr %8, align 8
  %33 = load ptr, ptr %9, align 8
  %34 = icmp ne ptr %32, %33
  br i1 %34, label %35, label %112

35:                                               ; preds = %31
  %36 = load ptr, ptr %8, align 8
  %37 = load i32, ptr %36, align 4
  store i32 %37, ptr %10, align 4
  %38 = load ptr, ptr %6, align 8
  %39 = call noundef nonnull align 4 dereferenceable(16) ptr @_ZNKSt5arrayIS_IiLm4EELm2EEixEm(ptr noundef nonnull align 4 dereferenceable(32) %38, i64 noundef 1) #3
  store ptr %39, ptr %11, align 8
  %40 = load ptr, ptr %11, align 8
  %41 = call noundef ptr @_ZNKSt5arrayIiLm4EE5beginEv(ptr noundef nonnull align 4 dereferenceable(16) %40) #3
  store ptr %41, ptr %12, align 8
  %42 = load ptr, ptr %11, align 8
  %43 = call noundef ptr @_ZNKSt5arrayIiLm4EE3endEv(ptr noundef nonnull align 4 dereferenceable(16) %42) #3
  store ptr %43, ptr %13, align 8
  br label %44

44:                                               ; preds = %105, %35
  %45 = load ptr, ptr %12, align 8
  %46 = load ptr, ptr %13, align 8
  %47 = icmp ne ptr %45, %46
  br i1 %47, label %48, label %108

48:                                               ; preds = %44
  %49 = load ptr, ptr %12, align 8
  %50 = load i32, ptr %49, align 4
  store i32 %50, ptr %14, align 4
  %51 = load i32, ptr %10, align 4
  %52 = load i32, ptr %14, align 4
  %53 = call noundef i32 @_ZNK10open_spiel18twenty_forty_eight21TwentyFortyEightState14GetCellContentEii(ptr noundef nonnull align 8 dereferenceable(120) %22, i32 noundef %51, i32 noundef %52)
  store i32 %53, ptr %15, align 4
  %54 = load i32, ptr %15, align 4
  %55 = icmp sgt i32 %54, 0
  br i1 %55, label %56, label %104

56:                                               ; preds = %48
  %57 = load i32, ptr %10, align 4
  %58 = load i32, ptr %14, align 4
  %59 = load i64, ptr %5, align 8
  %60 = trunc i64 %59 to i32
  %61 = call { i64, i64 } @_ZNK10open_spiel18twenty_forty_eight21TwentyFortyEightState20FindFarthestPositionEiii(ptr noundef nonnull align 8 dereferenceable(120) %22, i32 noundef %57, i32 noundef %58, i32 noundef %60)
  %62 = getelementptr inbounds nuw %"struct.std::array.20", ptr %16, i32 0, i32 0
  %63 = getelementptr inbounds nuw { i64, i64 }, ptr %62, i32 0, i32 0
  %64 = extractvalue { i64, i64 } %61, 0
  store i64 %64, ptr %63, align 4
  %65 = getelementptr inbounds nuw { i64, i64 }, ptr %62, i32 0, i32 1
  %66 = extractvalue { i64, i64 } %61, 1
  store i64 %66, ptr %65, align 4
  %67 = call noundef nonnull align 4 dereferenceable(8) ptr @_ZNSt5arrayIN10open_spiel18twenty_forty_eight10CoordinateELm2EEixEm(ptr noundef nonnull align 4 dereferenceable(16) %16, i64 noundef 0) #3
  call void @llvm.memcpy.p0.p0.i64(ptr align 4 %17, ptr align 4 %67, i64 8, i1 false)
  %68 = call noundef nonnull align 4 dereferenceable(8) ptr @_ZNSt5arrayIN10open_spiel18twenty_forty_eight10CoordinateELm2EEixEm(ptr noundef nonnull align 4 dereferenceable(16) %16, i64 noundef 1) #3
  call void @llvm.memcpy.p0.p0.i64(ptr align 4 %18, ptr align 4 %68, i64 8, i1 false)
  %69 = getelementptr inbounds nuw %"struct.open_spiel::twenty_forty_eight::Coordinate", ptr %18, i32 0, i32 0
  %70 = load i32, ptr %69, align 4
  %71 = getelementptr inbounds nuw %"struct.open_spiel::twenty_forty_eight::Coordinate", ptr %18, i32 0, i32 1
  %72 = load i32, ptr %71, align 4
  %73 = call noundef i32 @_ZNK10open_spiel18twenty_forty_eight21TwentyFortyEightState14GetCellContentEii(ptr noundef nonnull align 8 dereferenceable(120) %22, i32 noundef %70, i32 noundef %72)
  store i32 %73, ptr %19, align 4
  %74 = load i32, ptr %19, align 4
  %75 = icmp sgt i32 %74, 0
  br i1 %75, label %76, label %88

76:                                               ; preds = %56
  %77 = load i32, ptr %19, align 4
  %78 = load i32, ptr %15, align 4
  %79 = icmp eq i32 %77, %78
  br i1 %79, label %80, label %88

80:                                               ; preds = %76
  call void @llvm.memcpy.p0.p0.i64(ptr align 4 %21, ptr align 4 %18, i64 8, i1 false)
  %81 = load i64, ptr %21, align 4
  %82 = call i64 @_ZNK10open_spiel18twenty_forty_eight21TwentyFortyEightState7BoardAtENS0_10CoordinateE(ptr noundef nonnull align 8 dereferenceable(120) %22, i64 %81)
  %83 = trunc i64 %82 to i40
  store i40 %83, ptr %20, align 4
  %84 = getelementptr inbounds nuw %"struct.open_spiel::twenty_forty_eight::Tile", ptr %20, i32 0, i32 1
  %85 = load i8, ptr %84, align 4
  %86 = trunc i8 %85 to i1
  %87 = xor i1 %86, true
  br label %88

88:                                               ; preds = %80, %76, %56
  %89 = phi i1 [ false, %76 ], [ false, %56 ], [ %87, %80 ]
  br i1 %89, label %90, label %91

90:                                               ; preds = %88
  store i1 true, ptr %3, align 1
  br label %113

91:                                               ; preds = %88
  %92 = getelementptr inbounds nuw %"struct.open_spiel::twenty_forty_eight::Coordinate", ptr %17, i32 0, i32 0
  %93 = load i32, ptr %92, align 4
  %94 = load i32, ptr %10, align 4
  %95 = icmp ne i32 %93, %94
  br i1 %95, label %101, label %96

96:                                               ; preds = %91
  %97 = getelementptr inbounds nuw %"struct.open_spiel::twenty_forty_eight::Coordinate", ptr %17, i32 0, i32 1
  %98 = load i32, ptr %97, align 4
  %99 = load i32, ptr %14, align 4
  %100 = icmp ne i32 %98, %99
  br i1 %100, label %101, label %102

101:                                              ; preds = %96, %91
  store i1 true, ptr %3, align 1
  br label %113

102:                                              ; preds = %96
  br label %103

103:                                              ; preds = %102
  br label %104

104:                                              ; preds = %103, %48
  br label %105

105:                                              ; preds = %104
  %106 = load ptr, ptr %12, align 8
  %107 = getelementptr inbounds i32, ptr %106, i32 1
  store ptr %107, ptr %12, align 8
  br label %44

108:                                              ; preds = %44
  br label %109

109:                                              ; preds = %108
  %110 = load ptr, ptr %8, align 8
  %111 = getelementptr inbounds i32, ptr %110, i32 1
  store ptr %111, ptr %8, align 8
  br label %31

112:                                              ; preds = %31
  store i1 false, ptr %3, align 1
  br label %113

113:                                              ; preds = %112, %101, %90
  %114 = load i1, ptr %3, align 1
  ret i1 %114
}