; Function Attrs: mustprogress uwtable
define noundef zeroext i1 @_ZNK10open_spiel18twenty_forty_eight21TwentyFortyEightState21DoesActionChangeBoardEl(ptr noundef nonnull readonly align 8 captures(none) dereferenceable(120) %0, i64 noundef %1) local_unnamed_addr #3 align 2 {
  %3 = getelementptr inbounds [4 x %"struct.std::array.23"], ptr @_ZN10open_spiel18twenty_forty_eight12_GLOBAL__N_111kTraversalsE, i64 0, i64 %1
  %4 = getelementptr inbounds nuw i8, ptr %0, i64 80
  %5 = trunc i64 %1 to i32
  br label %6

6:                                                ; preds = %2, %.split58.us
  %.030.idx59 = phi i64 [ 0, %2 ], [ %.030.add, %.split58.us ]
  %.030.ptr = getelementptr inbounds nuw i8, ptr %3, i64 %.030.idx59
  %7 = load i32, ptr %.030.ptr, align 4
  %.fr = freeze i32 %7
  %or.cond.i.i = icmp ult i32 %.fr, 4
  %8 = shl nuw nsw i32 %.fr, 2
  br i1 %or.cond.i.i, label %.split, label %.split58.us

.split:                                           ; preds = %6, %_ZNK10open_spiel18twenty_forty_eight21TwentyFortyEightState14GetCellContentEii.exit.thread
  %.031.idx56 = phi i64 [ %.031.add, %_ZNK10open_spiel18twenty_forty_eight21TwentyFortyEightState14GetCellContentEii.exit.thread ], [ 16, %6 ]
  %.031.ptr = getelementptr inbounds nuw i8, ptr %3, i64 %.031.idx56
  %9 = load i32, ptr %.031.ptr, align 4
  %spec.select.i.i = icmp ult i32 %9, 4
  br i1 %spec.select.i.i, label %_ZNK10open_spiel18twenty_forty_eight21TwentyFortyEightState14GetCellContentEii.exit, label %_ZNK10open_spiel18twenty_forty_eight21TwentyFortyEightState14GetCellContentEii.exit.thread

_ZNK10open_spiel18twenty_forty_eight21TwentyFortyEightState14GetCellContentEii.exit: ; preds = %.split
  %10 = or disjoint i32 %9, %8
  %11 = zext nneg i32 %10 to i64
  %12 = load ptr, ptr %4, align 8
  %13 = getelementptr inbounds nuw %"struct.open_spiel::twenty_forty_eight::Tile", ptr %12, i64 %11
  %.sroa.0.0.copyload.i.i = load i64, ptr %13, align 4
  %.sroa.0.0.extract.trunc.i = trunc i64 %.sroa.0.0.copyload.i.i to i32
  %14 = icmp sgt i32 %.sroa.0.0.extract.trunc.i, 0
  br i1 %14, label %15, label %_ZNK10open_spiel18twenty_forty_eight21TwentyFortyEightState14GetCellContentEii.exit.thread

15:                                               ; preds = %_ZNK10open_spiel18twenty_forty_eight21TwentyFortyEightState14GetCellContentEii.exit
  %16 = tail call { i64, i64 } @_ZNK10open_spiel18twenty_forty_eight21TwentyFortyEightState20FindFarthestPositionEiii(ptr noundef nonnull align 8 dereferenceable(120) %0, i32 noundef %.fr, i32 noundef %9, i32 noundef %5)
  %17 = extractvalue { i64, i64 } %16, 0
  %.sroa.0.0.extract.trunc = trunc i64 %17 to i32
  %.sroa.2.0.extract.shift = lshr i64 %17, 32
  %.sroa.2.0.extract.trunc = trunc nuw i64 %.sroa.2.0.extract.shift to i32
  %18 = extractvalue { i64, i64 } %16, 1
  %19 = and i64 %18, -12884901892
  %spec.select.i.i42 = icmp eq i64 %19, 0
  br i1 %spec.select.i.i42, label %_ZNK10open_spiel18twenty_forty_eight21TwentyFortyEightState14GetCellContentEii.exit46, label %.critedge

_ZNK10open_spiel18twenty_forty_eight21TwentyFortyEightState14GetCellContentEii.exit46: ; preds = %15
  %.sroa.5.8.extract.shift = lshr i64 %18, 32
  %20 = shl nuw nsw i64 %18, 2
  %.masked = and i64 %20, 12
  %21 = or disjoint i64 %.masked, %.sroa.5.8.extract.shift
  %22 = load ptr, ptr %4, align 8
  %23 = getelementptr inbounds nuw %"struct.open_spiel::twenty_forty_eight::Tile", ptr %22, i64 %21
  %.sroa.0.0.copyload.i.i44 = load i64, ptr %23, align 4
  %.sroa.0.0.extract.trunc.i45 = trunc i64 %.sroa.0.0.copyload.i.i44 to i32
  %24 = icmp eq i32 %.sroa.0.0.extract.trunc.i45, %.sroa.0.0.extract.trunc.i
  %25 = and i64 %.sroa.0.0.copyload.i.i44, 4294967296
  %.not36 = icmp eq i64 %25, 0
  %or.cond = and i1 %24, %.not36
  br i1 %or.cond, label %.loopexit, label %.critedge

.critedge:                                        ; preds = %15, %_ZNK10open_spiel18twenty_forty_eight21TwentyFortyEightState14GetCellContentEii.exit46
  %.not37 = icmp eq i32 %.fr, %.sroa.0.0.extract.trunc
  %.not38 = icmp eq i32 %9, %.sroa.2.0.extract.trunc
  %or.cond39 = select i1 %.not37, i1 %.not38, i1 false
  br i1 %or.cond39, label %_ZNK10open_spiel18twenty_forty_eight21TwentyFortyEightState14GetCellContentEii.exit.thread, label %.loopexit

_ZNK10open_spiel18twenty_forty_eight21TwentyFortyEightState14GetCellContentEii.exit.thread: ; preds = %.split, %.critedge, %_ZNK10open_spiel18twenty_forty_eight21TwentyFortyEightState14GetCellContentEii.exit
  %.031.add = add nuw nsw i64 %.031.idx56, 4
  %.not34 = icmp eq i64 %.031.add, 32
  br i1 %.not34, label %.split58.us, label %.split

.split58.us:                                      ; preds = %_ZNK10open_spiel18twenty_forty_eight21TwentyFortyEightState14GetCellContentEii.exit.thread, %6
  %.030.add = add nuw nsw i64 %.030.idx59, 4
  %.not.not = icmp eq i64 %.030.add, 16
  br i1 %.not.not, label %.loopexit, label %6

.loopexit:                                        ; preds = %.split58.us, %.critedge, %_ZNK10open_spiel18twenty_forty_eight21TwentyFortyEightState14GetCellContentEii.exit46
  %.not55 = phi i1 [ true, %_ZNK10open_spiel18twenty_forty_eight21TwentyFortyEightState14GetCellContentEii.exit46 ], [ true, %.critedge ], [ false, %.split58.us ]
  ret i1 %.not55
}